; Function Attrs: nounwind uwtable
define internal noundef i32 @alen_object_start(ptr noundef readonly captures(none) %0) #0 {
  %2 = load ptr, ptr %0, align 8
  %3 = getelementptr inbounds nuw i8, ptr %2, i64 56
  %4 = load i32, ptr %3, align 8
  %5 = icmp eq i32 %4, 0
  br i1 %5, label %6, label %10

6:                                                ; preds = %1
  %7 = tail call zeroext i1 @errstart_cold(i32 noundef 21, ptr noundef null) #16
  tail call void @llvm.assume(i1 %7)
  %8 = tail call i32 @errcode(i32 noundef 50856066) #15
  %9 = tail call i32 (ptr, ...) @errmsg(ptr noundef nonnull @.str.11) #15
  tail call void @errfinish(ptr noundef nonnull @.str.2, i32 noundef 1907, ptr noundef nonnull @__func__.alen_object_start) #15
  unreachable

10:                                               ; preds = %1
  ret i32 0
}